target datalayout = "e-m:e-p270:32:32-p271:32:32-p272:64:64-i64:64-i128:128-f80:128-n8:16:32:64-S128"
target triple = "x86_64-pc-linux-gnu"

%struct.stat = type { i64, i64, i64, i32, i32, i32, i32, i64, i64, i64, i64, %struct.timespec, %struct.timespec, %struct.timespec, [3 x i64] }
%struct.timespec = type { i64, i64 }
%struct.dirent = type { i64, i64, i16, i8, [256 x i8] }

@.str.2 = private unnamed_addr constant [6 x i8] c"/proc\00", align 1
@.str.3 = private unnamed_addr constant [41 x i8] c"find_pid_by_inode: unable to open %s: %m\00", align 1
@.str.6 = private unnamed_addr constant [2 x i8] c".\00", align 1
@.str.7 = private unnamed_addr constant [6 x i8] c"%s/%s\00", align 1
@.str.16 = private unnamed_addr constant [12 x i8] c"/proc/%d/fd\00", align 1
@.str.17 = private unnamed_addr constant [38 x i8] c"_find_inode_in_fddir: found %lu at %s\00", align 1

; Function Attrs: nounwind uwtable
define internal i32 @_find_inode_in_fddir(i32 noundef %0, i64 noundef %1) #0 {
  %3 = alloca i32, align 4
  %4 = alloca i32, align 4
  %5 = alloca i64, align 8
  %6 = alloca ptr, align 8
  %7 = alloca ptr, align 8
  %8 = alloca [1024 x i8], align 16
  %9 = alloca [4096 x i8], align 16
  %10 = alloca i32, align 4
  %11 = alloca %struct.stat, align 8
  %12 = alloca i32, align 4
  store i32 %0, ptr %4, align 4
  store i64 %1, ptr %5, align 8
  call void @llvm.lifetime.start.p0(i64 8, ptr %6) #10
  call void @llvm.lifetime.start.p0(i64 8, ptr %7) #10
  call void @llvm.lifetime.start.p0(i64 1024, ptr %8) #10
  call void @llvm.lifetime.start.p0(i64 4096, ptr %9) #10
  call void @llvm.lifetime.start.p0(i64 4, ptr %10) #10
  store i32 -1, ptr %10, align 4
  call void @llvm.lifetime.start.p0(i64 144, ptr %11) #10
  %13 = getelementptr inbounds [1024 x i8], ptr %8, i64 0, i64 0
  %14 = load i32, ptr %4, align 4
  %15 = call i32 (ptr, i64, ptr, ...) @snprintf(ptr noundef %13, i64 noundef 1024, ptr noundef @.str.16, i32 noundef %14) #10
  %16 = icmp sge i32 %15, 1024
  br i1 %16, label %17, label %18

17:                                               ; preds = %2
  store i32 -1, ptr %3, align 4
  store i32 1, ptr %12, align 4
  br label %76

18:                                               ; preds = %2
  %19 = getelementptr inbounds [1024 x i8], ptr %8, i64 0, i64 0
  %20 = call ptr @opendir(ptr noundef %19)
  store ptr %20, ptr %6, align 8
  %21 = icmp eq ptr %20, null
  br i1 %21, label %22, label %23

22:                                               ; preds = %18
  store i32 -1, ptr %3, align 4
  store i32 1, ptr %12, align 4
  br label %76

23:                                               ; preds = %18
  br label %24

24:                                               ; preds = %71, %52, %47, %36, %23
  br label %25

25:                                               ; preds = %24
  %26 = load ptr, ptr %6, align 8
  %27 = call ptr @readdir(ptr noundef %26)
  store ptr %27, ptr %7, align 8
  %28 = icmp ne ptr %27, null
  br i1 %28, label %30, label %29

29:                                               ; preds = %25
  br label %72

30:                                               ; preds = %25
  %31 = load ptr, ptr %7, align 8
  %32 = getelementptr inbounds nuw %struct.dirent, ptr %31, i32 0, i32 4
  %33 = getelementptr inbounds [256 x i8], ptr %32, i64 0, i64 0
  %34 = call i32 @xstrncmp(ptr noundef %33, ptr noundef @.str.6, i64 noundef 1)
  %35 = icmp ne i32 %34, 0
  br i1 %35, label %37, label %36

36:                                               ; preds = %30
  br label %24, !llvm.loop !14

37:                                               ; preds = %30
  br label %38

38:                                               ; preds = %37
  %39 = getelementptr inbounds [4096 x i8], ptr %9, i64 0, i64 0
  %40 = getelementptr inbounds [1024 x i8], ptr %8, i64 0, i64 0
  %41 = load ptr, ptr %7, align 8
  %42 = getelementptr inbounds nuw %struct.dirent, ptr %41, i32 0, i32 4
  %43 = getelementptr inbounds [256 x i8], ptr %42, i64 0, i64 0
  %44 = call i32 (ptr, i64, ptr, ...) @snprintf(ptr noundef %39, i64 noundef 4096, ptr noundef @.str.7, ptr noundef %40, ptr noundef %43) #10
  %45 = sext i32 %44 to i64
  %46 = icmp uge i64 %45, 4096
  br i1 %46, label %47, label %48

47:                                               ; preds = %38
  br label %24, !llvm.loop !14

48:                                               ; preds = %38
  %49 = getelementptr inbounds [4096 x i8], ptr %9, i64 0, i64 0
  %50 = call i32 @stat(ptr noundef %49, ptr noundef %11) #10
  %51 = icmp ne i32 %50, 0
  br i1 %51, label %52, label %53

52:                                               ; preds = %48
  br label %24, !llvm.loop !14

53:                                               ; preds = %48
  %54 = getelementptr inbounds nuw %struct.stat, ptr %11, i32 0, i32 1
  %55 = load i64, ptr %54, align 8
  %56 = load i64, ptr %5, align 8
  %57 = icmp eq i64 %55, %56
  br i1 %57, label %58, label %71

58:                                               ; preds = %53
  br label %59

59:                                               ; preds = %58
  br label %60

60:                                               ; preds = %59
  %61 = call i32 @get_log_level()
  %62 = icmp sge i32 %61, 7
  br i1 %62, label %63, label %66

63:                                               ; preds = %60
  %64 = load i64, ptr %5, align 8
  %65 = getelementptr inbounds [4096 x i8], ptr %9, i64 0, i64 0
  call void (i32, ptr, ...) @log_var(i32 noundef 7, ptr noundef @.str.17, i64 noundef %64, ptr noundef %65)
  br label %66

66:                                               ; preds = %63, %60
  br label %67

67:                                               ; preds = %66
  br label %68

68:                                               ; preds = %67
  br label %69

69:                                               ; preds = %68
  br label %70

70:                                               ; preds = %69
  store i32 0, ptr %10, align 4
  br label %72

71:                                               ; preds = %53
  br label %24, !llvm.loop !14

72:                                               ; preds = %70, %29
  %73 = load ptr, ptr %6, align 8
  %74 = call i32 @closedir(ptr noundef %73)
  %75 = load i32, ptr %10, align 4
  store i32 %75, ptr %3, align 4
  store i32 1, ptr %12, align 4
  br label %76

76:                                               ; preds = %72, %22, %17
  call void @llvm.lifetime.end.p0(i64 144, ptr %11) #10
  call void @llvm.lifetime.end.p0(i64 4, ptr %10) #10
  call void @llvm.lifetime.end.p0(i64 4096, ptr %9) #10
  call void @llvm.lifetime.end.p0(i64 1024, ptr %8) #10
  call void @llvm.lifetime.end.p0(i64 8, ptr %7) #10
  call void @llvm.lifetime.end.p0(i64 8, ptr %6) #10
  %77 = load i32, ptr %3, align 4
  ret i32 %77
}

; Function Attrs: inlinehint nounwind willreturn memory(read) uwtable
define available_externally i32 @atoi(ptr noundef nonnull %0) #4 {
  %2 = alloca ptr, align 8
  store ptr %0, ptr %2, align 8
  %3 = load ptr, ptr %2, align 8
  %4 = call i64 @strtol(ptr noundef %3, ptr noundef null, i32 noundef 10) #10
  %5 = trunc i64 %4 to i32
  ret i32 %5
}

; Function Attrs: nounwind uwtable
define dso_local i32 @find_pid_by_inode(ptr noundef %0, i64 noundef %1) #0 {
  %3 = alloca i32, align 4
  %4 = alloca ptr, align 8
  %5 = alloca i64, align 8
  %6 = alloca ptr, align 8
  %7 = alloca ptr, align 8
  %8 = alloca ptr, align 8
  %9 = alloca i32, align 4
  %10 = alloca i32, align 4
  %11 = alloca i32, align 4
  store ptr %0, ptr %4, align 8
  store i64 %1, ptr %5, align 8
  call void @llvm.lifetime.start.p0(i64 8, ptr %6) #10
  call void @llvm.lifetime.start.p0(i64 8, ptr %7) #10
  call void @llvm.lifetime.start.p0(i64 8, ptr %8) #10
  store ptr @.str.2, ptr %8, align 8
  call void @llvm.lifetime.start.p0(i64 4, ptr %9) #10
  store i32 -1, ptr %9, align 4
  call void @llvm.lifetime.start.p0(i64 4, ptr %10) #10
  %12 = load ptr, ptr %8, align 8
  %13 = call ptr @opendir(ptr noundef %12)
  store ptr %13, ptr %6, align 8
  %14 = icmp eq ptr %13, null
  br i1 %14, label %15, label %18

15:                                               ; preds = %2
  %16 = load ptr, ptr %8, align 8
  %17 = call i32 (ptr, ...) @error(ptr noundef @.str.3, ptr noundef %16)
  store i32 -1, ptr %3, align 4
  store i32 1, ptr %11, align 4
  br label %59

18:                                               ; preds = %2
  br label %19

19:                                               ; preds = %54, %39, %18
  br label %20

20:                                               ; preds = %19
  %21 = load ptr, ptr %6, align 8
  %22 = call ptr @readdir(ptr noundef %21)
  store ptr %22, ptr %7, align 8
  %23 = icmp ne ptr %22, null
  br i1 %23, label %25, label %24

24:                                               ; preds = %20
  br label %55

25:                                               ; preds = %20
  %26 = call ptr @__ctype_b_loc() #12
  %27 = load ptr, ptr %26, align 8
  %28 = load ptr, ptr %7, align 8
  %29 = getelementptr inbounds nuw %struct.dirent, ptr %28, i32 0, i32 4
  %30 = getelementptr inbounds [256 x i8], ptr %29, i64 0, i64 0
  %31 = load i8, ptr %30, align 1
  %32 = sext i8 %31 to i32
  %33 = sext i32 %32 to i64
  %34 = getelementptr inbounds i16, ptr %27, i64 %33
  %35 = load i16, ptr %34, align 2
  %36 = zext i16 %35 to i32
  %37 = and i32 %36, 2048
  %38 = icmp ne i32 %37, 0
  br i1 %38, label %40, label %39

39:                                               ; preds = %25
  br label %19, !llvm.loop !13

40:                                               ; preds = %25
  br label %41

41:                                               ; preds = %40
  %42 = load ptr, ptr %7, align 8
  %43 = getelementptr inbounds nuw %struct.dirent, ptr %42, i32 0, i32 4
  %44 = getelementptr inbounds [256 x i8], ptr %43, i64 0, i64 0
  %45 = call i32 @atoi(ptr noundef %44) #11
  store i32 %45, ptr %10, align 4
  %46 = load i32, ptr %10, align 4
  %47 = load i64, ptr %5, align 8
  %48 = call i32 @_find_inode_in_fddir(i32 noundef %46, i64 noundef %47)
  store i32 %48, ptr %9, align 4
  %49 = load i32, ptr %9, align 4
  %50 = icmp eq i32 %49, 0
  br i1 %50, label %51, label %54

51:                                               ; preds = %41
  %52 = load i32, ptr %10, align 4
  %53 = load ptr, ptr %4, align 8
  store i32 %52, ptr %53, align 4
  br label %55

54:                                               ; preds = %41
  br label %19, !llvm.loop !13

55:                                               ; preds = %51, %24
  %56 = load ptr, ptr %6, align 8
  %57 = call i32 @closedir(ptr noundef %56)
  %58 = load i32, ptr %9, align 4
  store i32 %58, ptr %3, align 4
  store i32 1, ptr %11, align 4
  br label %59

59:                                               ; preds = %55, %15
  call void @llvm.lifetime.end.p0(i64 4, ptr %10) #10
  call void @llvm.lifetime.end.p0(i64 4, ptr %9) #10
  call void @llvm.lifetime.end.p0(i64 8, ptr %8) #10
  call void @llvm.lifetime.end.p0(i64 8, ptr %7) #10
  call void @llvm.lifetime.end.p0(i64 8, ptr %6) #10
  %60 = load i32, ptr %3, align 4
  ret i32 %60
}