; Function Attrs: nounwind uwtable
define dso_local range(i32 -1, 1) i32 @find_pid_by_inode(ptr noundef writeonly captures(none) %0, i64 noundef %1) local_unnamed_addr #0 {
  %3 = alloca [1024 x i8], align 16
  %4 = alloca [4096 x i8], align 16
  %5 = alloca %struct.stat, align 8
  %6 = tail call ptr @opendir(ptr noundef nonnull @.str.2)
  %7 = icmp eq ptr %6, null
  br i1 %7, label %11, label %.preheader

.preheader:                                       ; preds = %2
  %8 = tail call ptr @readdir(ptr noundef nonnull %6) #11
  %.not19 = icmp eq ptr %8, null
  br i1 %.not19, label %.loopexit, label %.lr.ph

.lr.ph:                                           ; preds = %.preheader
  %9 = tail call ptr @__ctype_b_loc() #12
  %10 = getelementptr inbounds nuw i8, ptr %5, i64 8
  br label %13

11:                                               ; preds = %2
  %12 = tail call i32 (ptr, ...) @error(ptr noundef nonnull @.str.3, ptr noundef nonnull @.str.2) #11
  br label %50

13:                                               ; preds = %.lr.ph, %.backedge
  %14 = phi ptr [ %8, %.lr.ph ], [ %22, %.backedge ]
  %15 = load ptr, ptr %9, align 8
  %16 = getelementptr inbounds nuw i8, ptr %14, i64 19
  %17 = load i8, ptr %16, align 1
  %18 = sext i8 %17 to i64
  %19 = getelementptr inbounds i16, ptr %15, i64 %18
  %20 = load i16, ptr %19, align 2
  %21 = and i16 %20, 2048
  %.not16 = icmp eq i16 %21, 0
  br i1 %.not16, label %.backedge, label %23

.backedge.sink.split:                             ; preds = %23, %28, %.loopexit.i
  call void @llvm.lifetime.end.p0(i64 144, ptr nonnull %5) #11
  call void @llvm.lifetime.end.p0(i64 4096, ptr nonnull %4) #11
  call void @llvm.lifetime.end.p0(i64 1024, ptr nonnull %3) #11
  br label %.backedge

.backedge:                                        ; preds = %.backedge.sink.split, %13
  %22 = call ptr @readdir(ptr noundef nonnull %6) #11
  %.not = icmp eq ptr %22, null
  br i1 %.not, label %.loopexit, label %13, !llvm.loop !14

23:                                               ; preds = %13
  %24 = call i64 @strtol(ptr noundef nonnull captures(none) %16, ptr noundef null, i32 noundef 10) #11
  %25 = trunc i64 %24 to i32
  call void @llvm.lifetime.start.p0(i64 1024, ptr nonnull %3) #11
  call void @llvm.lifetime.start.p0(i64 4096, ptr nonnull %4) #11
  call void @llvm.lifetime.start.p0(i64 144, ptr nonnull %5) #11
  %26 = call i32 (ptr, i64, ptr, ...) @snprintf(ptr noundef nonnull dereferenceable(1) %3, i64 noundef 1024, ptr noundef nonnull @.str.16, i32 noundef %25) #11
  %27 = icmp sgt i32 %26, 1023
  br i1 %27, label %.backedge.sink.split, label %28

28:                                               ; preds = %23
  %29 = call ptr @opendir(ptr noundef nonnull %3)
  %30 = icmp eq ptr %29, null
  br i1 %30, label %.backedge.sink.split, label %.preheader.i

.preheader.i:                                     ; preds = %28
  %31 = call ptr @readdir(ptr noundef nonnull %29) #11
  %.not15.i = icmp eq ptr %31, null
  br i1 %.not15.i, label %.loopexit.i, label %.lr.ph.i

.lr.ph.i:                                         ; preds = %.preheader.i, %.backedge.i
  %32 = phi ptr [ %35, %.backedge.i ], [ %31, %.preheader.i ]
  %33 = getelementptr inbounds nuw i8, ptr %32, i64 19
  %34 = call i32 @xstrncmp(ptr noundef nonnull %33, ptr noundef nonnull @.str.6, i64 noundef 1) #11
  %.not11.i = icmp eq i32 %34, 0
  br i1 %.not11.i, label %.backedge.i, label %36

.backedge.i:                                      ; preds = %39, %36, %.lr.ph.i
  %35 = call ptr @readdir(ptr noundef nonnull %29) #11
  %.not.i = icmp eq ptr %35, null
  br i1 %.not.i, label %.loopexit.i, label %.lr.ph.i, !llvm.loop !15

36:                                               ; preds = %.lr.ph.i
  %37 = call i32 (ptr, i64, ptr, ...) @snprintf(ptr noundef nonnull dereferenceable(1) %4, i64 noundef 4096, ptr noundef nonnull @.str.7, ptr noundef nonnull %3, ptr noundef nonnull %33) #11
  %38 = icmp ugt i32 %37, 4095
  br i1 %38, label %.backedge.i, label %39

39:                                               ; preds = %36
  %40 = call i32 @stat(ptr noundef nonnull %4, ptr noundef nonnull %5) #11
  %.not12.i = icmp eq i32 %40, 0
  %41 = load i64, ptr %10, align 8
  %42 = icmp eq i64 %41, %1
  %or.cond.i = select i1 %.not12.i, i1 %42, i1 false
  br i1 %or.cond.i, label %43, label %.backedge.i

43:                                               ; preds = %39
  %44 = call i32 @get_log_level() #11
  %45 = icmp sgt i32 %44, 6
  br i1 %45, label %46, label %.critedge17

46:                                               ; preds = %43
  call void (i32, ptr, ...) @log_var(i32 noundef 7, ptr noundef nonnull @.str.17, i64 noundef %1, ptr noundef nonnull %4) #11
  br label %.critedge17

.loopexit.i:                                      ; preds = %.backedge.i, %.preheader.i
  %47 = call i32 @closedir(ptr noundef nonnull %29)
  br label %.backedge.sink.split

.critedge17:                                      ; preds = %43, %46
  %48 = call i32 @closedir(ptr noundef nonnull %29)
  call void @llvm.lifetime.end.p0(i64 144, ptr nonnull %5) #11
  call void @llvm.lifetime.end.p0(i64 4096, ptr nonnull %4) #11
  call void @llvm.lifetime.end.p0(i64 1024, ptr nonnull %3) #11
  store i32 %25, ptr %0, align 4
  br label %.loopexit

.loopexit:                                        ; preds = %.backedge, %.preheader, %.critedge17
  %.1 = phi i32 [ 0, %.critedge17 ], [ -1, %.preheader ], [ -1, %.backedge ]
  %49 = call i32 @closedir(ptr noundef nonnull %6)
  br label %50

50:                                               ; preds = %.loopexit, %11
  %.0 = phi i32 [ -1, %11 ], [ %.1, %.loopexit ]
  ret i32 %.0
}